; Function Attrs: mustprogress uwtable
define internal void @_ZNK3ade7details8Metadata14MetadataHolderIN12_GLOBAL__N_19DataQueueEE5cloneEv(ptr dead_on_unwind noalias writable writeonly sret(%"class.std::unique_ptr.423") align 8 captures(none) initializes((0, 8)) %0, ptr noundef nonnull readonly align 8 captures(none) dereferenceable(24) %1) unnamed_addr #3 align 2 personality ptr @__gxx_personality_v0 {
  %3 = tail call noalias noundef nonnull dereferenceable(24) ptr @_Znwm(i64 noundef 24) #33
  %4 = getelementptr inbounds nuw i8, ptr %1, i64 8
  %.val = load ptr, ptr %4, align 8, !tbaa !445
  %5 = getelementptr inbounds nuw i8, ptr %1, i64 16
  %.val1 = load ptr, ptr %5, align 8, !tbaa !74
  store ptr getelementptr inbounds nuw inrange(-16, 24) (i8, ptr @_ZTVN3ade7details8Metadata14MetadataHolderIN12_GLOBAL__N_19DataQueueEEE, i64 16), ptr %3, align 8, !tbaa !3
  %6 = getelementptr inbounds nuw i8, ptr %3, i64 8
  store ptr %.val, ptr %6, align 8, !tbaa !445
  %7 = getelementptr inbounds nuw i8, ptr %3, i64 16
  store ptr %.val1, ptr %7, align 8, !tbaa !74
  %.not.i.i.i.i.i = icmp eq ptr %.val1, null
  br i1 %.not.i.i.i.i.i, label %_ZN3ade7details8Metadata14MetadataHolderIN12_GLOBAL__N_19DataQueueEEC2ERKS5_.exit, label %8

8:                                                ; preds = %2
  %9 = getelementptr inbounds nuw i8, ptr %.val1, i64 8
  %10 = load i8, ptr @__libc_single_threaded, align 1, !tbaa !34
  %.not.i.i.i.i.i.i = icmp eq i8 %10, 0
  br i1 %.not.i.i.i.i.i.i, label %14, label %11

11:                                               ; preds = %8
  %12 = load i32, ptr %9, align 4, !tbaa !75
  %13 = add nsw i32 %12, 1
  store i32 %13, ptr %9, align 4, !tbaa !75
  br label %_ZN3ade7details8Metadata14MetadataHolderIN12_GLOBAL__N_19DataQueueEEC2ERKS5_.exit

14:                                               ; preds = %8
  %15 = atomicrmw volatile add ptr %9, i32 1 acq_rel, align 4
  br label %_ZN3ade7details8Metadata14MetadataHolderIN12_GLOBAL__N_19DataQueueEEC2ERKS5_.exit

_ZN3ade7details8Metadata14MetadataHolderIN12_GLOBAL__N_19DataQueueEEC2ERKS5_.exit: ; preds = %2, %11, %14
  store ptr %3, ptr %0, align 8, !tbaa !100
  ret void
}